target datalayout = "e-m:e-p270:32:32-p271:32:32-p272:64:64-i64:64-i128:128-f80:128-n8:16:32:64-S128"
target triple = "x86_64-pc-linux-gnu"

%"struct.std::_Rb_tree_header" = type { %"struct.std::_Rb_tree_node_base", i64 }
%"struct.std::_Rb_tree_node_base" = type { i32, ptr, ptr, ptr }
%"class.vcg::Point3.17" = type { [3 x float] }
%class.EditAlignPlugin = type { %class.QObject, %class.EditTool, %class.QFont, i32, ptr, %"class.vcg::Trackball", ptr, ptr, %"class.vcg::MeshTree", %"class.vcg::AlignPair::Param", %"class.vcg::MeshTree<MeshModel, float>::Param", ptr }
%class.QObject = type { ptr, %class.QScopedPointer }
%class.QScopedPointer = type { ptr }
%class.EditTool = type { %class.MeshLabPluginLogger }
%class.MeshLabPluginLogger = type { ptr, ptr }
%class.QFont = type <{ %class.QExplicitlySharedDataPointer, i32, [4 x i8] }>
%class.QExplicitlySharedDataPointer = type { ptr }
%"class.vcg::Trackball" = type <{ %"class.vcg::Transform", %"class.vcg::View", i32, ptr, ptr, ptr, %"class.std::map.18", %"class.vcg::Similarityf", %"class.vcg::Similarityf", %"class.vcg::Similarityf", %"class.vcg::Point3.17", [4 x i8], %"class.std::vector.26", i8, [3 x i8], i32, i32, %"class.vcg::Quaternion", i8, i8, [2 x i8], %"class.std::__cxx11::list", i32, i8, [3 x i8] }>
%"class.vcg::Transform" = type { %"class.vcg::Similarityf", %"class.vcg::Point3.17", float }
%"class.vcg::View" = type <{ %"class.vcg::Matrix44", %"class.vcg::Matrix44", %"class.vcg::Matrix44", %"class.vcg::Matrix44", [4 x i32], i8, [3 x i8] }>
%"class.vcg::Matrix44" = type { %"struct.std::array" }
%"struct.std::array" = type { [16 x float] }
%"class.std::map.18" = type { %"class.std::_Rb_tree.19" }
%"class.std::_Rb_tree.19" = type { %"struct.std::_Rb_tree<int, std::pair<const int, vcg::TrackMode *>, std::_Select1st<std::pair<const int, vcg::TrackMode *>>, std::less<int>>::_Rb_tree_impl" }
%"struct.std::_Rb_tree<int, std::pair<const int, vcg::TrackMode *>, std::_Select1st<std::pair<const int, vcg::TrackMode *>>, std::less<int>>::_Rb_tree_impl" = type { %"struct.std::_Rb_tree_key_compare.23", %"struct.std::_Rb_tree_header" }
%"struct.std::_Rb_tree_key_compare.23" = type { %"struct.std::less.24" }
%"struct.std::less.24" = type { i8 }
%"class.vcg::Similarityf" = type { %"class.vcg::Similarity" }
%"class.vcg::Similarity" = type { %"class.vcg::Quaternion", %"class.vcg::Point3.17", float }
%"class.std::vector.26" = type { %"struct.std::_Vector_base.27" }
%"struct.std::_Vector_base.27" = type { %"struct.std::_Vector_base<vcg::Point3<float>, std::allocator<vcg::Point3<float>>>::_Vector_impl" }
%"struct.std::_Vector_base<vcg::Point3<float>, std::allocator<vcg::Point3<float>>>::_Vector_impl" = type { %"struct.std::_Vector_base<vcg::Point3<float>, std::allocator<vcg::Point3<float>>>::_Vector_impl_data" }
%"struct.std::_Vector_base<vcg::Point3<float>, std::allocator<vcg::Point3<float>>>::_Vector_impl_data" = type { ptr, ptr, ptr }
%"class.vcg::Quaternion" = type { %"class.vcg::Point4.16" }
%"class.vcg::Point4.16" = type { [4 x float] }
%"class.std::__cxx11::list" = type { %"class.std::__cxx11::_List_base" }
%"class.std::__cxx11::_List_base" = type { %"struct.std::__cxx11::_List_base<vcg::Transform, std::allocator<vcg::Transform>>::_List_impl" }
%"struct.std::__cxx11::_List_base<vcg::Transform, std::allocator<vcg::Transform>>::_List_impl" = type { %"struct.std::__detail::_List_node_header" }
%"struct.std::__detail::_List_node_header" = type { %"struct.std::__detail::_List_node_base", i64 }
%"struct.std::__detail::_List_node_base" = type { ptr, ptr }
%"class.vcg::MeshTree" = type { %"class.std::map.34", %"class.std::vector.39", %"class.vcg::OccupancyGrid", ptr }
%"class.std::map.34" = type { %"class.std::_Rb_tree.35" }
%"class.std::_Rb_tree.35" = type { %"struct.std::_Rb_tree<int, std::pair<const int, vcg::MeshTree<MeshModel, float>::MeshNode *>, std::_Select1st<std::pair<const int, vcg::MeshTree<MeshModel, float>::MeshNode *>>, std::less<int>>::_Rb_tree_impl" }
%"struct.std::_Rb_tree<int, std::pair<const int, vcg::MeshTree<MeshModel, float>::MeshNode *>, std::_Select1st<std::pair<const int, vcg::MeshTree<MeshModel, float>::MeshNode *>>, std::less<int>>::_Rb_tree_impl" = type { %"struct.std::_Rb_tree_key_compare.23", %"struct.std::_Rb_tree_header" }
%"class.std::vector.39" = type { %"struct.std::_Vector_base.40" }
%"struct.std::_Vector_base.40" = type { %"struct.std::_Vector_base<vcg::AlignPair::Result, std::allocator<vcg::AlignPair::Result>>::_Vector_impl" }
%"struct.std::_Vector_base<vcg::AlignPair::Result, std::allocator<vcg::AlignPair::Result>>::_Vector_impl" = type { %"struct.std::_Vector_base<vcg::AlignPair::Result, std::allocator<vcg::AlignPair::Result>>::_Vector_impl_data" }
%"struct.std::_Vector_base<vcg::AlignPair::Result, std::allocator<vcg::AlignPair::Result>>::_Vector_impl_data" = type { ptr, ptr, ptr }
%"class.vcg::OccupancyGrid" = type { %"class.vcg::GridStaticObj", i32, i32, i32, %"class.std::vector.46", %"class.std::map.51" }
%"class.vcg::GridStaticObj" = type { %"class.vcg::BasicGrid", ptr }
%"class.vcg::BasicGrid" = type { %"class.vcg::Box3.44", %"class.vcg::Point3.17", %"class.vcg::Point3.45", %"class.vcg::Point3.17" }
%"class.vcg::Box3.44" = type { %"class.vcg::Point3.17", %"class.vcg::Point3.17" }
%"class.vcg::Point3.45" = type { [3 x i32] }
%"class.std::vector.46" = type { %"struct.std::_Vector_base.47" }
%"struct.std::_Vector_base.47" = type { %"struct.std::_Vector_base<vcg::OccupancyGrid<CMeshO, float>::OGArcInfo, std::allocator<vcg::OccupancyGrid<CMeshO, float>::OGArcInfo>>::_Vector_impl" }
%"struct.std::_Vector_base<vcg::OccupancyGrid<CMeshO, float>::OGArcInfo, std::allocator<vcg::OccupancyGrid<CMeshO, float>::OGArcInfo>>::_Vector_impl" = type { %"struct.std::_Vector_base<vcg::OccupancyGrid<CMeshO, float>::OGArcInfo, std::allocator<vcg::OccupancyGrid<CMeshO, float>::OGArcInfo>>::_Vector_impl_data" }
%"struct.std::_Vector_base<vcg::OccupancyGrid<CMeshO, float>::OGArcInfo, std::allocator<vcg::OccupancyGrid<CMeshO, float>::OGArcInfo>>::_Vector_impl_data" = type { ptr, ptr, ptr }
%"class.std::map.51" = type { %"class.std::_Rb_tree.52" }
%"class.std::_Rb_tree.52" = type { %"struct.std::_Rb_tree<int, std::pair<const int, vcg::OccupancyGrid<CMeshO, float>::OGMeshInfo>, std::_Select1st<std::pair<const int, vcg::OccupancyGrid<CMeshO, float>::OGMeshInfo>>, std::less<int>>::_Rb_tree_impl" }
%"struct.std::_Rb_tree<int, std::pair<const int, vcg::OccupancyGrid<CMeshO, float>::OGMeshInfo>, std::_Select1st<std::pair<const int, vcg::OccupancyGrid<CMeshO, float>::OGMeshInfo>>, std::less<int>>::_Rb_tree_impl" = type { %"struct.std::_Rb_tree_key_compare.23", %"struct.std::_Rb_tree_header" }
%"class.vcg::AlignPair::Param" = type { i32, i32, i32, double, double, i32, double, i32, double, double, double, i32, i8, double, double, i32, i32 }
%"class.vcg::MeshTree<MeshModel, float>::Param" = type { i32, float, float }
%class.QPaintDevice = type { ptr, i16, ptr }
%class.QWidget = type { %class.QObject, %class.QPaintDevice, ptr }
%class.QFlags.2069 = type { i32 }
%class.QFlags = type { i32 }
%class.QMouseEvent = type <{ %class.QInputEvent, %class.QPointF, %class.QPointF, %class.QPointF, i32, %class.QFlags.2620, i32, %class.QVector2D, [4 x i8] }>
%class.QInputEvent = type { %class.QEvent.base, %class.QFlags, i64 }
%class.QEvent.base = type <{ ptr, ptr, i16, i16 }>
%class.QPointF = type { double, double }
%class.QFlags.2620 = type { i32 }
%class.QVector2D = type { [2 x float] }
%class.QWidgetData = type { i64, i32, %class.QFlags.2069, i32, %class.QRect, [4 x i8], %class.QPalette, %class.QFont, %class.QRect }
%class.QPalette = type <{ ptr, %union.anon.2621, [4 x i8] }>
%union.anon.2621 = type { %"struct.QPalette::Data" }
%"struct.QPalette::Data" = type { i32 }
%class.QRect = type { i32, i32, i32, i32 }
%class.QFlag = type { i32 }

; Function Attrs: mustprogress nounwind uwtable
define linkonce_odr noundef i32 @_ZNK5QFlagcvjEv(ptr noundef nonnull align 4 dereferenceable(4) %0) #4 comdat align 2 {
  %2 = alloca ptr, align 8
  store ptr %0, ptr %2, align 8
  %3 = load ptr, ptr %2, align 8
  %4 = getelementptr inbounds %class.QFlag, ptr %3, i32 0, i32 0
  %5 = load i32, ptr %4, align 4
  ret i32 %5
}

; Function Attrs: mustprogress nounwind uwtable
define linkonce_odr void @_ZN6QFlagsIN2Qt16KeyboardModifierEEC2E5QFlag(ptr noundef nonnull align 4 dereferenceable(4) %0, i32 %1) unnamed_addr #4 comdat align 2 {
  %3 = alloca %class.QFlag, align 4
  %4 = alloca ptr, align 8
  %5 = getelementptr inbounds %class.QFlag, ptr %3, i32 0, i32 0
  store i32 %1, ptr %5, align 4
  store ptr %0, ptr %4, align 8
  %6 = load ptr, ptr %4, align 8
  %7 = getelementptr inbounds %class.QFlags, ptr %6, i32 0, i32 0
  %8 = call noundef i32 @_ZNK5QFlagcvjEv(ptr noundef nonnull align 4 dereferenceable(4) %3) #3
  store i32 %8, ptr %7, align 4
  ret void
}

; Function Attrs: mustprogress nounwind uwtable
define linkonce_odr void @_ZN5QFlagC2Ej(ptr noundef nonnull align 4 dereferenceable(4) %0, i32 noundef %1) unnamed_addr #4 comdat align 2 {
  %3 = alloca ptr, align 8
  %4 = alloca i32, align 4
  store ptr %0, ptr %3, align 8
  store i32 %1, ptr %4, align 4
  %5 = load ptr, ptr %3, align 8
  %6 = getelementptr inbounds %class.QFlag, ptr %5, i32 0, i32 0
  %7 = load i32, ptr %4, align 4
  store i32 %7, ptr %6, align 4
  ret void
}

; Function Attrs: mustprogress nounwind uwtable
define linkonce_odr noundef i32 @_ZNK6QFlagsIN2Qt16KeyboardModifierEEcvjEv(ptr noundef nonnull align 4 dereferenceable(4) %0) #4 comdat align 2 {
  %2 = alloca ptr, align 8
  store ptr %0, ptr %2, align 8
  %3 = load ptr, ptr %2, align 8
  %4 = getelementptr inbounds %class.QFlags, ptr %3, i32 0, i32 0
  %5 = load i32, ptr %4, align 4
  ret i32 %5
}

; Function Attrs: mustprogress nounwind uwtable
define linkonce_odr i32 @_ZNK6QFlagsIN2Qt16KeyboardModifierEEanES1_(ptr noundef nonnull align 4 dereferenceable(4) %0, i32 noundef %1) #4 comdat align 2 {
  %3 = alloca %class.QFlags, align 4
  %4 = alloca ptr, align 8
  %5 = alloca i32, align 4
  %6 = alloca %class.QFlag, align 4
  store ptr %0, ptr %4, align 8
  store i32 %1, ptr %5, align 4
  %7 = load ptr, ptr %4, align 8
  %8 = getelementptr inbounds %class.QFlags, ptr %7, i32 0, i32 0
  %9 = load i32, ptr %8, align 4
  %10 = load i32, ptr %5, align 4
  %11 = and i32 %9, %10
  call void @_ZN5QFlagC2Ej(ptr noundef nonnull align 4 dereferenceable(4) %6, i32 noundef %11) #3
  %12 = getelementptr inbounds %class.QFlag, ptr %6, i32 0, i32 0
  %13 = load i32, ptr %12, align 4
  call void @_ZN6QFlagsIN2Qt16KeyboardModifierEEC2E5QFlag(ptr noundef nonnull align 4 dereferenceable(4) %3, i32 %13) #3
  %14 = getelementptr inbounds %class.QFlags, ptr %3, i32 0, i32 0
  %15 = load i32, ptr %14, align 4
  ret i32 %15
}

; Function Attrs: mustprogress nounwind uwtable
define linkonce_odr noundef double @_ZNK7QPointF1yEv(ptr noundef nonnull align 8 dereferenceable(16) %0) #4 comdat align 2 {
  %2 = alloca ptr, align 8
  store ptr %0, ptr %2, align 8
  %3 = load ptr, ptr %2, align 8
  %4 = getelementptr inbounds %class.QPointF, ptr %3, i32 0, i32 1
  %5 = load double, ptr %4, align 8
  ret double %5
}

; Function Attrs: mustprogress nounwind uwtable
define linkonce_odr noundef i32 @_ZNK5QRect6heightEv(ptr noundef nonnull align 4 dereferenceable(16) %0) #4 comdat align 2 {
  %2 = alloca ptr, align 8
  store ptr %0, ptr %2, align 8
  %3 = load ptr, ptr %2, align 8
  %4 = getelementptr inbounds %class.QRect, ptr %3, i32 0, i32 3
  %5 = load i32, ptr %4, align 4
  %6 = getelementptr inbounds %class.QRect, ptr %3, i32 0, i32 1
  %7 = load i32, ptr %6, align 4
  %8 = sub nsw i32 %5, %7
  %9 = add nsw i32 %8, 1
  ret i32 %9
}

; Function Attrs: mustprogress nounwind uwtable
define linkonce_odr noundef i32 @_Z6qRoundd(double noundef %0) #4 comdat {
  %2 = alloca double, align 8
  store double %0, ptr %2, align 8
  %3 = load double, ptr %2, align 8
  %4 = fcmp oge double %3, 0.000000e+00
  br i1 %4, label %5, label %9

5:                                                ; preds = %1
  %6 = load double, ptr %2, align 8
  %7 = fadd double %6, 5.000000e-01
  %8 = fptosi double %7 to i32
  br label %22

9:                                                ; preds = %1
  %10 = load double, ptr %2, align 8
  %11 = load double, ptr %2, align 8
  %12 = fsub double %11, 1.000000e+00
  %13 = fptosi double %12 to i32
  %14 = sitofp i32 %13 to double
  %15 = fsub double %10, %14
  %16 = fadd double %15, 5.000000e-01
  %17 = fptosi double %16 to i32
  %18 = load double, ptr %2, align 8
  %19 = fsub double %18, 1.000000e+00
  %20 = fptosi double %19 to i32
  %21 = add nsw i32 %17, %20
  br label %22

22:                                               ; preds = %9, %5
  %23 = phi i32 [ %8, %5 ], [ %21, %9 ]
  ret i32 %23
}

; Function Attrs: mustprogress nounwind uwtable
define linkonce_odr noundef double @_ZNK7QPointF1xEv(ptr noundef nonnull align 8 dereferenceable(16) %0) #4 comdat align 2 {
  %2 = alloca ptr, align 8
  store ptr %0, ptr %2, align 8
  %3 = load ptr, ptr %2, align 8
  %4 = getelementptr inbounds %class.QPointF, ptr %3, i32 0, i32 0
  %5 = load double, ptr %4, align 8
  ret double %5
}

; Function Attrs: mustprogress nounwind uwtable
define linkonce_odr noundef i32 @_Z6QT2VCGN2Qt11MouseButtonE6QFlagsINS_16KeyboardModifierEE(i32 noundef %0, i32 %1) #4 comdat {
  %3 = alloca %class.QFlags, align 4
  %4 = alloca i32, align 4
  %5 = alloca i32, align 4
  %6 = alloca %class.QFlags, align 4
  %7 = alloca %class.QFlags, align 4
  %8 = alloca %class.QFlags, align 4
  %9 = getelementptr inbounds %class.QFlags, ptr %3, i32 0, i32 0
  store i32 %1, ptr %9, align 4
  store i32 %0, ptr %4, align 4
  store i32 0, ptr %5, align 4
  %10 = load i32, ptr %4, align 4
  %11 = and i32 %10, 1
  %12 = icmp ne i32 %11, 0
  br i1 %12, label %13, label %16

13:                                               ; preds = %2
  %14 = load i32, ptr %5, align 4
  %15 = or i32 %14, 1
  store i32 %15, ptr %5, align 4
  br label %16

16:                                               ; preds = %13, %2
  %17 = load i32, ptr %4, align 4
  %18 = and i32 %17, 2
  %19 = icmp ne i32 %18, 0
  br i1 %19, label %20, label %23

20:                                               ; preds = %16
  %21 = load i32, ptr %5, align 4
  %22 = or i32 %21, 4
  store i32 %22, ptr %5, align 4
  br label %23

23:                                               ; preds = %20, %16
  %24 = load i32, ptr %4, align 4
  %25 = and i32 %24, 4
  %26 = icmp ne i32 %25, 0
  br i1 %26, label %27, label %30

27:                                               ; preds = %23
  %28 = load i32, ptr %5, align 4
  %29 = or i32 %28, 2
  store i32 %29, ptr %5, align 4
  br label %30

30:                                               ; preds = %27, %23
  %31 = call i32 @_ZNK6QFlagsIN2Qt16KeyboardModifierEEanES1_(ptr noundef nonnull align 4 dereferenceable(4) %3, i32 noundef 33554432) #3
  %32 = getelementptr inbounds %class.QFlags, ptr %6, i32 0, i32 0
  store i32 %31, ptr %32, align 4
  %33 = call noundef i32 @_ZNK6QFlagsIN2Qt16KeyboardModifierEEcvjEv(ptr noundef nonnull align 4 dereferenceable(4) %6) #3
  %34 = icmp ne i32 %33, 0
  br i1 %34, label %35, label %38

35:                                               ; preds = %30
  %36 = load i32, ptr %5, align 4
  %37 = or i32 %36, 16
  store i32 %37, ptr %5, align 4
  br label %38

38:                                               ; preds = %35, %30
  %39 = call i32 @_ZNK6QFlagsIN2Qt16KeyboardModifierEEanES1_(ptr noundef nonnull align 4 dereferenceable(4) %3, i32 noundef 67108864) #3
  %40 = getelementptr inbounds %class.QFlags, ptr %7, i32 0, i32 0
  store i32 %39, ptr %40, align 4
  %41 = call noundef i32 @_ZNK6QFlagsIN2Qt16KeyboardModifierEEcvjEv(ptr noundef nonnull align 4 dereferenceable(4) %7) #3
  %42 = icmp ne i32 %41, 0
  br i1 %42, label %43, label %46

43:                                               ; preds = %38
  %44 = load i32, ptr %5, align 4
  %45 = or i32 %44, 32
  store i32 %45, ptr %5, align 4
  br label %46

46:                                               ; preds = %43, %38
  %47 = call i32 @_ZNK6QFlagsIN2Qt16KeyboardModifierEEanES1_(ptr noundef nonnull align 4 dereferenceable(4) %3, i32 noundef 134217728) #3
  %48 = getelementptr inbounds %class.QFlags, ptr %8, i32 0, i32 0
  store i32 %47, ptr %48, align 4
  %49 = call noundef i32 @_ZNK6QFlagsIN2Qt16KeyboardModifierEEcvjEv(ptr noundef nonnull align 4 dereferenceable(4) %8) #3
  %50 = icmp ne i32 %49, 0
  br i1 %50, label %51, label %54

51:                                               ; preds = %46
  %52 = load i32, ptr %5, align 4
  %53 = or i32 %52, 64
  store i32 %53, ptr %5, align 4
  br label %54

54:                                               ; preds = %51, %46
  %55 = load i32, ptr %5, align 4
  ret i32 %55
}

; Function Attrs: mustprogress nounwind uwtable
define linkonce_odr i32 @_ZNK11QInputEvent9modifiersEv(ptr noundef nonnull align 8 dereferenceable(32) %0) #4 comdat align 2 {
  %2 = alloca %class.QFlags, align 4
  %3 = alloca ptr, align 8
  store ptr %0, ptr %3, align 8
  %4 = load ptr, ptr %3, align 8
  %5 = getelementptr inbounds %class.QInputEvent, ptr %4, i32 0, i32 1
  call void @llvm.memcpy.p0.p0.i64(ptr align 4 %2, ptr align 4 %5, i64 4, i1 false)
  %6 = getelementptr inbounds %class.QFlags, ptr %2, i32 0, i32 0
  %7 = load i32, ptr %6, align 4
  ret i32 %7
}

; Function Attrs: mustprogress nounwind uwtable
define linkonce_odr noundef i32 @_ZNK11QMouseEvent6buttonEv(ptr noundef nonnull align 8 dereferenceable(100) %0) #4 comdat align 2 {
  %2 = alloca ptr, align 8
  store ptr %0, ptr %2, align 8
  %3 = load ptr, ptr %2, align 8
  %4 = getelementptr inbounds %class.QMouseEvent, ptr %3, i32 0, i32 4
  %5 = load i32, ptr %4, align 8
  ret i32 %5
}

; Function Attrs: mustprogress uwtable
define linkonce_odr noundef i32 @_ZNK11QMouseEvent1yEv(ptr noundef nonnull align 8 dereferenceable(100) %0) #5 comdat align 2 {
  %2 = alloca ptr, align 8
  store ptr %0, ptr %2, align 8
  %3 = load ptr, ptr %2, align 8
  %4 = getelementptr inbounds %class.QMouseEvent, ptr %3, i32 0, i32 1
  %5 = call noundef double @_ZNK7QPointF1yEv(ptr noundef nonnull align 8 dereferenceable(16) %4)
  %6 = call noundef i32 @_Z6qRoundd(double noundef %5)
  ret i32 %6
}

; Function Attrs: mustprogress nounwind uwtable
define linkonce_odr noundef i32 @_ZNK7QWidget6heightEv(ptr noundef nonnull align 8 dereferenceable(48) %0) #4 comdat align 2 {
  %2 = alloca ptr, align 8
  store ptr %0, ptr %2, align 8
  %3 = load ptr, ptr %2, align 8
  %4 = getelementptr inbounds %class.QWidget, ptr %3, i32 0, i32 2
  %5 = load ptr, ptr %4, align 8
  %6 = getelementptr inbounds %class.QWidgetData, ptr %5, i32 0, i32 4
  %7 = call noundef i32 @_ZNK5QRect6heightEv(ptr noundef nonnull align 4 dereferenceable(16) %6) #3
  ret i32 %7
}

; Function Attrs: mustprogress uwtable
define linkonce_odr noundef i32 @_ZNK11QMouseEvent1xEv(ptr noundef nonnull align 8 dereferenceable(100) %0) #5 comdat align 2 {
  %2 = alloca ptr, align 8
  store ptr %0, ptr %2, align 8
  %3 = load ptr, ptr %2, align 8
  %4 = getelementptr inbounds %class.QMouseEvent, ptr %3, i32 0, i32 1
  %5 = call noundef double @_ZNK7QPointF1xEv(ptr noundef nonnull align 8 dereferenceable(16) %4)
  %6 = call noundef i32 @_Z6qRoundd(double noundef %5)
  ret i32 %6
}

; Function Attrs: mustprogress uwtable
define void @_ZN15EditAlignPlugin17mouseReleaseEventEP11QMouseEventR9MeshModelP6GLArea(ptr noundef nonnull align 8 dereferenceable(1056) %0, ptr noundef %1, ptr noundef nonnull align 8 dereferenceable(1288) %2, ptr noundef %3) unnamed_addr #5 align 2 {
  %5 = alloca ptr, align 8
  %6 = alloca ptr, align 8
  %7 = alloca ptr, align 8
  %8 = alloca ptr, align 8
  %9 = alloca %class.QFlags, align 4
  store ptr %0, ptr %5, align 8
  store ptr %1, ptr %6, align 8
  store ptr %2, ptr %7, align 8
  store ptr %3, ptr %8, align 8
  %10 = load ptr, ptr %5, align 8
  %11 = getelementptr inbounds %class.EditAlignPlugin, ptr %10, i32 0, i32 3
  %12 = load i32, ptr %11, align 8
  %13 = icmp eq i32 %12, 3
  br i1 %13, label %14, label %34

14:                                               ; preds = %4
  %15 = getelementptr inbounds %class.EditAlignPlugin, ptr %10, i32 0, i32 5
  %16 = load ptr, ptr %6, align 8
  %17 = call noundef i32 @_ZNK11QMouseEvent1xEv(ptr noundef nonnull align 8 dereferenceable(100) %16)
  %18 = getelementptr inbounds %class.EditAlignPlugin, ptr %10, i32 0, i32 6
  %19 = load ptr, ptr %18, align 8
  %20 = call noundef i32 @_ZNK7QWidget6heightEv(ptr noundef nonnull align 8 dereferenceable(48) %19)
  %21 = load ptr, ptr %6, align 8
  %22 = call noundef i32 @_ZNK11QMouseEvent1yEv(ptr noundef nonnull align 8 dereferenceable(100) %21)
  %23 = sub nsw i32 %20, %22
  %24 = load ptr, ptr %6, align 8
  %25 = call noundef i32 @_ZNK11QMouseEvent6buttonEv(ptr noundef nonnull align 8 dereferenceable(100) %24)
  %26 = load ptr, ptr %6, align 8
  %27 = call i32 @_ZNK11QInputEvent9modifiersEv(ptr noundef nonnull align 8 dereferenceable(32) %26)
  %28 = getelementptr inbounds %class.QFlags, ptr %9, i32 0, i32 0
  store i32 %27, ptr %28, align 4
  %29 = getelementptr inbounds %class.QFlags, ptr %9, i32 0, i32 0
  %30 = load i32, ptr %29, align 4
  %31 = call noundef i32 @_Z6QT2VCGN2Qt11MouseButtonE6QFlagsINS_16KeyboardModifierEE(i32 noundef %25, i32 %30)
  call void @_ZN3vcg9Trackball7MouseUpEiii(ptr noundef nonnull align 8 dereferenceable(597) %15, i32 noundef %17, i32 noundef %23, i32 noundef %31)
  %32 = getelementptr inbounds %class.EditAlignPlugin, ptr %10, i32 0, i32 6
  %33 = load ptr, ptr %32, align 8
  call void @_ZN7QWidget6updateEv(ptr noundef nonnull align 8 dereferenceable(48) %33)
  br label %34

34:                                               ; preds = %14, %4
  ret void
}